target datalayout = "e-m:e-p270:32:32-p271:32:32-p272:64:64-i64:64-i128:128-f80:128-n8:16:32:64-S128"
target triple = "x86_64-pc-linux-gnu"

%struct.darktable_t = type { %struct.dt_codepath_t, i32, i32, ptr, ptr, ptr, ptr, ptr, ptr, ptr, ptr, ptr, ptr, ptr, ptr, ptr, ptr, ptr, ptr, ptr, ptr, ptr, ptr, ptr, ptr, ptr, ptr, ptr, ptr, ptr, [64 x %struct.dt_pthread_mutex_t], %struct.dt_pthread_mutex_t, %struct.dt_pthread_mutex_t, %struct.dt_pthread_mutex_t, %struct.dt_pthread_mutex_t, %struct.dt_pthread_mutex_t, ptr, ptr, ptr, ptr, ptr, ptr, ptr, ptr, ptr, ptr, ptr, ptr, ptr, %struct.dt_lua_state_t, ptr, double, ptr, i32, [47 x i32], i32, i32, ptr, ptr, %struct.dt_sys_resources_t, %struct.dt_backthumb_t, %struct.dt_gimp_t }
%struct.dt_codepath_t = type { i8, [3 x i8] }
%struct.dt_pthread_mutex_t = type { %union.pthread_mutex_t }
%union.pthread_mutex_t = type { %struct.__pthread_mutex_s }
%struct.__pthread_mutex_s = type { i32, i32, i32, i32, i32, i16, i16, %struct.__pthread_internal_list }
%struct.__pthread_internal_list = type { ptr, ptr }
%struct.dt_lua_state_t = type { i32 }
%struct.dt_sys_resources_t = type { i64, i64, ptr, ptr, i32 }
%struct.dt_backthumb_t = type { double, double, i32, i32, i32, i32 }
%struct.dt_gimp_t = type { i32, ptr, ptr, i32, i32 }
%struct.dt_gui_gtk_t = type { ptr, %struct.dt_gui_widgets_t, %struct.dt_gui_scrollbars_t, i32, ptr, i32, [39 x %struct._GdkRGBA], i32, i32, i32, i32, i32, double, double, double, double, ptr, double, double, double, double, i32, i32, [4096 x i8], i32, i32, i32, %struct.dt_pthread_mutex_t }
%struct.dt_gui_widgets_t = type { ptr, ptr, ptr, ptr, i32, i32, i32 }
%struct.dt_gui_scrollbars_t = type { ptr, ptr, i32 }
%struct._GdkRGBA = type { double, double, double, double }
%struct.dt_image_t = type { i32, i32, float, float, float, float, float, float, float, [64 x i8], [64 x i8], [128 x i8], [64 x i8], [64 x i8], [64 x i8], [64 x i8], i64, i32, %union.dt_image_correction_data_t, [64 x i8], [64 x i8], [64 x i8], [128 x i8], i32, [256 x i8], i32, i32, i32, i32, i32, i32, i32, i32, i32, i32, float, i32, i32, i32, i32, i32, i32, i64, i64, i64, i64, i32, [12 x i8], %struct.dt_iop_buffer_dsc_t, [9 x float], ptr, i32, i32, %struct.dt_image_raw_parameters_t, %struct.dt_image_geoloc_t, %struct._color_harmony_t, i16, [4 x i16], i32, i32, float, float, [4 x float], [4 x [3 x float]], [4 x float], ptr, ptr, i32, i32, [8 x i8] }
%union.dt_image_correction_data_t = type { %struct.anon.16 }
%struct.anon.16 = type { i32, float, [11 x float], [11 x float], [11 x float], [11 x float], [11 x float] }
%struct.dt_iop_buffer_dsc_t = type { i32, i32, i32, [6 x [6 x i8]], %struct.anon.19, [12 x i8], %struct.anon.20, [4 x float], i32, [12 x i8] }
%struct.anon.19 = type { i16, i16 }
%struct.anon.20 = type { i32, [12 x i8], [4 x float] }
%struct.dt_image_raw_parameters_t = type { i32 }
%struct.dt_image_geoloc_t = type { double, double, double }
%struct._color_harmony_t = type { i32, i32, i32 }

@darktable = external global %struct.darktable_t, align 8
@.str.1 = private unnamed_addr constant [41 x i8] c"[sql] %s:%d, function %s(): prepare \22%s\22\00", align 1
@.str.2 = private unnamed_addr constant [117 x i8] c"generated/home/dtcxzyw/WorkSpace/Projects/compilers/llvm-opt-benchmark/bench/darktable/darktable/src/common/act_on.c\00", align 1
@stderr = external global ptr, align 8
@.str.3 = private unnamed_addr constant [53 x i8] c"sqlite3 error: %s:%d, function %s(), query \22%s\22: %s\0A\00", align 1
@.str.14 = private unnamed_addr constant [64 x i8] c"SELECT id  FROM main.images  WHERE group_id = %d AND id IN (%s)\00", align 1
@__FUNCTION__._insert_in_list = private unnamed_addr constant [16 x i8] c"_insert_in_list\00", align 1

; Function Attrs: nounwind uwtable
define internal void @_insert_in_list(ptr noundef %0, i32 noundef %1, i32 noundef %2) #0 {
  %4 = alloca ptr, align 8
  %5 = alloca i32, align 4
  %6 = alloca i32, align 4
  %7 = alloca ptr, align 8
  %8 = alloca i32, align 4
  %9 = alloca ptr, align 8
  %10 = alloca ptr, align 8
  %11 = alloca i32, align 4
  %12 = alloca i32, align 4
  store ptr %0, ptr %4, align 8, !tbaa !107
  store i32 %1, ptr %5, align 4, !tbaa !6
  store i32 %2, ptr %6, align 4, !tbaa !6
  %13 = load i32, ptr %6, align 4, !tbaa !6
  %14 = icmp ne i32 %13, 0
  br i1 %14, label %15, label %32

15:                                               ; preds = %3
  %16 = load ptr, ptr %4, align 8, !tbaa !107
  %17 = load ptr, ptr %16, align 8, !tbaa !54
  %18 = load i32, ptr %5, align 4, !tbaa !6
  %19 = sext i32 %18 to i64
  %20 = inttoptr i64 %19 to ptr
  %21 = call ptr @g_list_find_custom(ptr noundef %17, ptr noundef %20, ptr noundef @_find_custom)
  %22 = icmp ne ptr %21, null
  br i1 %22, label %31, label %23

23:                                               ; preds = %15
  %24 = load ptr, ptr %4, align 8, !tbaa !107
  %25 = load ptr, ptr %24, align 8, !tbaa !54
  %26 = load i32, ptr %5, align 4, !tbaa !6
  %27 = sext i32 %26 to i64
  %28 = inttoptr i64 %27 to ptr
  %29 = call ptr @g_list_append(ptr noundef %25, ptr noundef %28)
  %30 = load ptr, ptr %4, align 8, !tbaa !107
  store ptr %29, ptr %30, align 8, !tbaa !54
  br label %31

31:                                               ; preds = %23, %15
  br label %144

32:                                               ; preds = %3
  call void @llvm.lifetime.start.p0(i64 8, ptr %7) #6
  %33 = load ptr, ptr getelementptr inbounds nuw (%struct.darktable_t, ptr @darktable, i32 0, i32 16), align 8, !tbaa !109
  %34 = load i32, ptr %5, align 4, !tbaa !6
  %35 = call ptr @dt_image_cache_get(ptr noundef %33, i32 noundef %34, i8 noundef signext 114)
  store ptr %35, ptr %7, align 8, !tbaa !110
  %36 = load ptr, ptr %7, align 8, !tbaa !110
  %37 = icmp ne ptr %36, null
  br i1 %37, label %38, label %143

38:                                               ; preds = %32
  call void @llvm.lifetime.start.p0(i64 4, ptr %8) #6
  %39 = load ptr, ptr %7, align 8, !tbaa !110
  %40 = getelementptr inbounds nuw %struct.dt_image_t, ptr %39, i32 0, i32 41
  %41 = load i32, ptr %40, align 4, !tbaa !112
  store i32 %41, ptr %8, align 4, !tbaa !6
  %42 = load ptr, ptr getelementptr inbounds nuw (%struct.darktable_t, ptr @darktable, i32 0, i32 16), align 8, !tbaa !109
  %43 = load ptr, ptr %7, align 8, !tbaa !110
  call void @dt_image_cache_read_release(ptr noundef %42, ptr noundef %43)
  %44 = load ptr, ptr getelementptr inbounds nuw (%struct.darktable_t, ptr @darktable, i32 0, i32 14), align 8, !tbaa !55
  %45 = icmp ne ptr %44, null
  br i1 %45, label %46, label %61

46:                                               ; preds = %38
  %47 = load ptr, ptr getelementptr inbounds nuw (%struct.darktable_t, ptr @darktable, i32 0, i32 14), align 8, !tbaa !55
  %48 = getelementptr inbounds nuw %struct.dt_gui_gtk_t, ptr %47, i32 0, i32 8
  %49 = load i32, ptr %48, align 4, !tbaa !122
  %50 = icmp ne i32 %49, 0
  br i1 %50, label %51, label %61

51:                                               ; preds = %46
  %52 = load ptr, ptr getelementptr inbounds nuw (%struct.darktable_t, ptr @darktable, i32 0, i32 14), align 8, !tbaa !55
  %53 = getelementptr inbounds nuw %struct.dt_gui_gtk_t, ptr %52, i32 0, i32 9
  %54 = load i32, ptr %53, align 8, !tbaa !123
  %55 = load i32, ptr %8, align 4, !tbaa !6
  %56 = icmp eq i32 %54, %55
  br i1 %56, label %61, label %57

57:                                               ; preds = %51
  %58 = load ptr, ptr getelementptr inbounds nuw (%struct.darktable_t, ptr @darktable, i32 0, i32 22), align 8, !tbaa !78
  %59 = call ptr @dt_selection_get_collection(ptr noundef %58)
  %60 = icmp ne ptr %59, null
  br i1 %60, label %78, label %61

61:                                               ; preds = %57, %51, %46, %38
  %62 = load ptr, ptr %4, align 8, !tbaa !107
  %63 = load ptr, ptr %62, align 8, !tbaa !54
  %64 = load i32, ptr %5, align 4, !tbaa !6
  %65 = sext i32 %64 to i64
  %66 = inttoptr i64 %65 to ptr
  %67 = call ptr @g_list_find_custom(ptr noundef %63, ptr noundef %66, ptr noundef @_find_custom)
  %68 = icmp ne ptr %67, null
  br i1 %68, label %77, label %69

69:                                               ; preds = %61
  %70 = load ptr, ptr %4, align 8, !tbaa !107
  %71 = load ptr, ptr %70, align 8, !tbaa !54
  %72 = load i32, ptr %5, align 4, !tbaa !6
  %73 = sext i32 %72 to i64
  %74 = inttoptr i64 %73 to ptr
  %75 = call ptr @g_list_append(ptr noundef %71, ptr noundef %74)
  %76 = load ptr, ptr %4, align 8, !tbaa !107
  store ptr %75, ptr %76, align 8, !tbaa !54
  br label %77

77:                                               ; preds = %69, %61
  br label %142

78:                                               ; preds = %57
  call void @llvm.lifetime.start.p0(i64 8, ptr %9) #6
  call void @llvm.lifetime.start.p0(i64 8, ptr %10) #6
  %79 = load i32, ptr %8, align 4, !tbaa !6
  %80 = load ptr, ptr getelementptr inbounds nuw (%struct.darktable_t, ptr @darktable, i32 0, i32 22), align 8, !tbaa !78
  %81 = call ptr @dt_selection_get_collection(ptr noundef %80)
  %82 = call ptr @dt_collection_get_query_no_group(ptr noundef %81)
  %83 = call noalias ptr (ptr, ...) @g_strdup_printf(ptr noundef @.str.14, i32 noundef %79, ptr noundef %82)
  store ptr %83, ptr %10, align 8, !tbaa !68
  br label %84

84:                                               ; preds = %78
  br label %85

85:                                               ; preds = %84
  %86 = load i32, ptr getelementptr inbounds nuw (%struct.darktable_t, ptr @darktable, i32 0, i32 2), align 8, !tbaa !69
  %87 = and i32 256, %86
  %88 = icmp ne i32 %87, 0
  br i1 %88, label %89, label %96

89:                                               ; preds = %85
  %90 = load i32, ptr getelementptr inbounds nuw (%struct.darktable_t, ptr @darktable, i32 0, i32 2), align 8, !tbaa !69
  %91 = xor i32 %90, -1
  %92 = and i32 0, %91
  %93 = icmp ne i32 %92, 0
  br i1 %93, label %96, label %94

94:                                               ; preds = %89
  %95 = load ptr, ptr %10, align 8, !tbaa !68
  call void (ptr, ...) @dt_print_ext(ptr noundef @.str.1, ptr noundef @.str.2, i32 noundef 72, ptr noundef @__FUNCTION__._insert_in_list, ptr noundef %95)
  br label %96

96:                                               ; preds = %94, %89, %85
  br label %97

97:                                               ; preds = %96
  br label %98

98:                                               ; preds = %97
  call void @llvm.lifetime.start.p0(i64 4, ptr %11) #6
  %99 = load ptr, ptr getelementptr inbounds nuw (%struct.darktable_t, ptr @darktable, i32 0, i32 18), align 8, !tbaa !70
  %100 = call ptr @dt_database_get(ptr noundef %99)
  %101 = load ptr, ptr %10, align 8, !tbaa !68
  %102 = call i32 @sqlite3_prepare_v2(ptr noundef %100, ptr noundef %101, i32 noundef -1, ptr noundef %9, ptr noundef null)
  store i32 %102, ptr %11, align 4, !tbaa !6
  %103 = load i32, ptr %11, align 4, !tbaa !6
  %104 = icmp ne i32 %103, 0
  br i1 %104, label %105, label %112

105:                                              ; preds = %98
  %106 = load ptr, ptr @stderr, align 8, !tbaa !71
  %107 = load ptr, ptr %10, align 8, !tbaa !68
  %108 = load ptr, ptr getelementptr inbounds nuw (%struct.darktable_t, ptr @darktable, i32 0, i32 18), align 8, !tbaa !70
  %109 = call ptr @dt_database_get(ptr noundef %108)
  %110 = call ptr @sqlite3_errmsg(ptr noundef %109)
  %111 = call i32 (ptr, ptr, ...) @fprintf(ptr noundef %106, ptr noundef @.str.3, ptr noundef @.str.2, i32 noundef 72, ptr noundef @__FUNCTION__._insert_in_list, ptr noundef %107, ptr noundef %110) #6
  br label %112

112:                                              ; preds = %105, %98
  call void @llvm.lifetime.end.p0(i64 4, ptr %11) #6
  br label %113

113:                                              ; preds = %112
  br label %114

114:                                              ; preds = %113
  br label %115

115:                                              ; preds = %137, %114
  %116 = load ptr, ptr %9, align 8, !tbaa !73
  %117 = call i32 @sqlite3_step(ptr noundef %116)
  %118 = icmp eq i32 %117, 100
  br i1 %118, label %119, label %138

119:                                              ; preds = %115
  call void @llvm.lifetime.start.p0(i64 4, ptr %12) #6
  %120 = load ptr, ptr %9, align 8, !tbaa !73
  %121 = call i32 @sqlite3_column_int(ptr noundef %120, i32 noundef 0)
  store i32 %121, ptr %12, align 4, !tbaa !6
  %122 = load ptr, ptr %4, align 8, !tbaa !107
  %123 = load ptr, ptr %122, align 8, !tbaa !54
  %124 = load i32, ptr %12, align 4, !tbaa !6
  %125 = sext i32 %124 to i64
  %126 = inttoptr i64 %125 to ptr
  %127 = call ptr @g_list_find_custom(ptr noundef %123, ptr noundef %126, ptr noundef @_find_custom)
  %128 = icmp ne ptr %127, null
  br i1 %128, label %137, label %129

129:                                              ; preds = %119
  %130 = load ptr, ptr %4, align 8, !tbaa !107
  %131 = load ptr, ptr %130, align 8, !tbaa !54
  %132 = load i32, ptr %12, align 4, !tbaa !6
  %133 = sext i32 %132 to i64
  %134 = inttoptr i64 %133 to ptr
  %135 = call ptr @g_list_append(ptr noundef %131, ptr noundef %134)
  %136 = load ptr, ptr %4, align 8, !tbaa !107
  store ptr %135, ptr %136, align 8, !tbaa !54
  br label %137

137:                                              ; preds = %129, %119
  call void @llvm.lifetime.end.p0(i64 4, ptr %12) #6
  br label %115

138:                                              ; preds = %115
  %139 = load ptr, ptr %9, align 8, !tbaa !73
  %140 = call i32 @sqlite3_finalize(ptr noundef %139)
  %141 = load ptr, ptr %10, align 8, !tbaa !68
  call void @g_free(ptr noundef %141)
  call void @llvm.lifetime.end.p0(i64 8, ptr %10) #6
  call void @llvm.lifetime.end.p0(i64 8, ptr %9) #6
  br label %142

142:                                              ; preds = %138, %77
  call void @llvm.lifetime.end.p0(i64 4, ptr %8) #6
  br label %143

143:                                              ; preds = %142, %32
  call void @llvm.lifetime.end.p0(i64 8, ptr %7) #6
  br label %144

144:                                              ; preds = %143, %31
  ret void
}