; Function Attrs: nounwind uwtable
define internal fastcc void @_insert_in_list(ptr noundef nonnull captures(none) %0, i32 noundef %1, i32 noundef %2) unnamed_addr #0 {
  %4 = alloca ptr, align 8
  %.not = icmp eq i32 %2, 0
  br i1 %.not, label %13, label %5

5:                                                ; preds = %3
  %6 = load ptr, ptr %0, align 8, !tbaa !14
  %7 = sext i32 %1 to i64
  %8 = inttoptr i64 %7 to ptr
  %9 = tail call ptr @g_list_find_custom(ptr noundef %6, ptr noundef %8, ptr noundef nonnull @_find_custom) #7
  %.not36 = icmp eq ptr %9, null
  br i1 %.not36, label %10, label %76

10:                                               ; preds = %5
  %11 = load ptr, ptr %0, align 8, !tbaa !14
  %12 = tail call ptr @g_list_append(ptr noundef %11, ptr noundef %8) #7
  store ptr %12, ptr %0, align 8, !tbaa !14
  br label %76

13:                                               ; preds = %3
  %14 = load ptr, ptr getelementptr inbounds nuw (i8, ptr @darktable, i64 120), align 8, !tbaa !103
  %15 = tail call ptr @dt_image_cache_get(ptr noundef %14, i32 noundef %1, i8 noundef signext 114) #7
  %.not28 = icmp eq ptr %15, null
  br i1 %.not28, label %76, label %16

16:                                               ; preds = %13
  %17 = getelementptr inbounds nuw i8, ptr %15, i64 1436
  %18 = load i32, ptr %17, align 4, !tbaa !104
  %19 = load ptr, ptr getelementptr inbounds nuw (i8, ptr @darktable, i64 120), align 8, !tbaa !103
  tail call void @dt_image_cache_read_release(ptr noundef %19, ptr noundef nonnull %15) #7
  %20 = load ptr, ptr getelementptr inbounds nuw (i8, ptr @darktable, i64 104), align 8, !tbaa !15
  %.not29 = icmp eq ptr %20, null
  br i1 %.not29, label %31, label %21

21:                                               ; preds = %16
  %22 = getelementptr inbounds nuw i8, ptr %20, i64 1356
  %23 = load i32, ptr %22, align 4, !tbaa !114
  %.not30 = icmp eq i32 %23, 0
  br i1 %.not30, label %31, label %24

24:                                               ; preds = %21
  %25 = getelementptr inbounds nuw i8, ptr %20, i64 1360
  %26 = load i32, ptr %25, align 8, !tbaa !115
  %27 = icmp eq i32 %26, %18
  br i1 %27, label %31, label %28

28:                                               ; preds = %24
  %29 = load ptr, ptr getelementptr inbounds nuw (i8, ptr @darktable, i64 168), align 8, !tbaa !73
  %30 = tail call ptr @dt_selection_get_collection(ptr noundef %29) #7
  %.not31 = icmp eq ptr %30, null
  br i1 %.not31, label %31, label %39

31:                                               ; preds = %28, %24, %21, %16
  %32 = load ptr, ptr %0, align 8, !tbaa !14
  %33 = sext i32 %1 to i64
  %34 = inttoptr i64 %33 to ptr
  %35 = tail call ptr @g_list_find_custom(ptr noundef %32, ptr noundef %34, ptr noundef nonnull @_find_custom) #7
  %.not35 = icmp eq ptr %35, null
  br i1 %.not35, label %36, label %76

36:                                               ; preds = %31
  %37 = load ptr, ptr %0, align 8, !tbaa !14
  %38 = tail call ptr @g_list_append(ptr noundef %37, ptr noundef %34) #7
  store ptr %38, ptr %0, align 8, !tbaa !14
  br label %76

39:                                               ; preds = %28
  call void @llvm.lifetime.start.p0(i64 8, ptr nonnull %4) #7
  %40 = load ptr, ptr getelementptr inbounds nuw (i8, ptr @darktable, i64 168), align 8, !tbaa !73
  %41 = tail call ptr @dt_selection_get_collection(ptr noundef %40) #7
  %42 = tail call ptr @dt_collection_get_query_no_group(ptr noundef %41) #7
  %43 = tail call noalias ptr (ptr, ...) @g_strdup_printf(ptr noundef nonnull @.str.14, i32 noundef %18, ptr noundef %42) #7
  %44 = load i32, ptr getelementptr inbounds nuw (i8, ptr @darktable, i64 8), align 8, !tbaa !64
  %45 = and i32 %44, 256
  %.not32 = icmp eq i32 %45, 0
  br i1 %.not32, label %47, label %46

46:                                               ; preds = %39
  tail call void (ptr, ...) @dt_print_ext(ptr noundef nonnull @.str.1, ptr noundef nonnull @.str.2, i32 noundef 72, ptr noundef nonnull @__FUNCTION__._insert_in_list, ptr noundef %43) #7
  br label %47

47:                                               ; preds = %46, %39
  %48 = load ptr, ptr getelementptr inbounds nuw (i8, ptr @darktable, i64 136), align 8, !tbaa !65
  %49 = tail call ptr @dt_database_get(ptr noundef %48) #7
  %50 = call i32 @sqlite3_prepare_v2(ptr noundef %49, ptr noundef %43, i32 noundef -1, ptr noundef nonnull %4, ptr noundef null) #7
  %.not33 = icmp eq i32 %50, 0
  br i1 %.not33, label %57, label %51

51:                                               ; preds = %47
  %52 = load ptr, ptr @stderr, align 8, !tbaa !66
  %53 = load ptr, ptr getelementptr inbounds nuw (i8, ptr @darktable, i64 136), align 8, !tbaa !65
  %54 = call ptr @dt_database_get(ptr noundef %53) #7
  %55 = call ptr @sqlite3_errmsg(ptr noundef %54) #7
  %56 = call i32 (ptr, ptr, ...) @fprintf(ptr noundef %52, ptr noundef nonnull @.str.3, ptr noundef nonnull @.str.2, i32 noundef 72, ptr noundef nonnull @__FUNCTION__._insert_in_list, ptr noundef %43, ptr noundef %55) #8
  br label %57

57:                                               ; preds = %51, %47
  %58 = load ptr, ptr %4, align 8, !tbaa !68
  %59 = call i32 @sqlite3_step(ptr noundef %58) #7
  %60 = icmp eq i32 %59, 100
  br i1 %60, label %.lr.ph, label %._crit_edge

.lr.ph:                                           ; preds = %57, %70
  %61 = load ptr, ptr %4, align 8, !tbaa !68
  %62 = call i32 @sqlite3_column_int(ptr noundef %61, i32 noundef 0) #7
  %63 = load ptr, ptr %0, align 8, !tbaa !14
  %64 = sext i32 %62 to i64
  %65 = inttoptr i64 %64 to ptr
  %66 = call ptr @g_list_find_custom(ptr noundef %63, ptr noundef %65, ptr noundef nonnull @_find_custom) #7
  %.not34 = icmp eq ptr %66, null
  br i1 %.not34, label %67, label %70

67:                                               ; preds = %.lr.ph
  %68 = load ptr, ptr %0, align 8, !tbaa !14
  %69 = call ptr @g_list_append(ptr noundef %68, ptr noundef %65) #7
  store ptr %69, ptr %0, align 8, !tbaa !14
  br label %70

70:                                               ; preds = %67, %.lr.ph
  %71 = load ptr, ptr %4, align 8, !tbaa !68
  %72 = call i32 @sqlite3_step(ptr noundef %71) #7
  %73 = icmp eq i32 %72, 100
  br i1 %73, label %.lr.ph, label %._crit_edge

._crit_edge:                                      ; preds = %70, %57
  %74 = load ptr, ptr %4, align 8, !tbaa !68
  %75 = call i32 @sqlite3_finalize(ptr noundef %74) #7
  call void @g_free(ptr noundef %43) #7
  call void @llvm.lifetime.end.p0(i64 8, ptr nonnull %4) #7
  br label %76

76:                                               ; preds = %13, %31, %36, %._crit_edge, %5, %10
  ret void
}